target datalayout = "e-m:e-p270:32:32-p271:32:32-p272:64:64-i64:64-i128:128-f80:128-n8:16:32:64-S128"
target triple = "x86_64-pc-linux-gnu"

%struct._generic_SUNAdaptController = type { ptr, ptr, ptr }
%struct._ARKUserControlContent = type { double, double, double, double, ptr, ptr, ptr }
%struct.ARKodeMemRec = type { ptr, double, ptr, i32, i32, double, double, ptr, i32, double, ptr, i32, i32, ptr, ptr, i32, ptr, ptr, i32, ptr, ptr, ptr, ptr, ptr, ptr, ptr, ptr, ptr, ptr, ptr, ptr, ptr, ptr, ptr, i32, ptr, ptr, i32, ptr, i32, ptr, ptr, ptr, ptr, ptr, ptr, ptr, ptr, ptr, ptr, ptr, ptr, ptr, ptr, ptr, ptr, ptr, ptr, ptr, ptr, ptr, ptr, ptr, ptr, ptr, ptr, i32, ptr, ptr, ptr, ptr, ptr, ptr, ptr, i32, ptr, ptr, ptr, i32, ptr, ptr, ptr, ptr, ptr, ptr, ptr, i32, i32, i32, i32, double, double, double, double, double, double, double, double, double, double, i32, ptr, i64, i32, i32, i32, i32, i64, i64, i32, i64, i64, i64, i64, i64, i64, i64, double, double, double, double, double, i32, double, double, i32, i32, i32, i32, i32, i32, i32, i32, ptr, i32, ptr, ptr, ptr, ptr, i32, i32, i32 }
%struct.ARKodeHAdaptMemRec = type { double, double, double, double, i32, double, double, double, double, double, double, i32, i32, i32, i32, ptr, i32, ptr, ptr, i64, i64 }

; Function Attrs: nounwind uwtable
define i32 @SUNAdaptController_EstimateStep_ARKUserControl(ptr noundef %0, double noundef %1, i32 noundef %2, double noundef %3, ptr noundef %4) #0 {
  %6 = alloca i32, align 4
  %7 = alloca ptr, align 8
  %8 = alloca double, align 8
  %9 = alloca i32, align 4
  %10 = alloca double, align 8
  %11 = alloca ptr, align 8
  %12 = alloca double, align 8
  %13 = alloca i32, align 4
  %14 = alloca i32, align 4
  store ptr %0, ptr %7, align 8, !tbaa !9
  store double %1, ptr %8, align 8, !tbaa !30
  store i32 %2, ptr %9, align 4, !tbaa !31
  store double %3, ptr %10, align 8, !tbaa !30
  store ptr %4, ptr %11, align 8, !tbaa !33
  call void @llvm.lifetime.start.p0(i64 8, ptr %12) #5
  %15 = load double, ptr %10, align 8, !tbaa !30
  %16 = fcmp ole double %15, 1.000000e+00
  br i1 %16, label %17, label %33

17:                                               ; preds = %5
  %18 = load ptr, ptr %7, align 8, !tbaa !9
  %19 = getelementptr inbounds nuw %struct._generic_SUNAdaptController, ptr %18, i32 0, i32 0
  %20 = load ptr, ptr %19, align 8, !tbaa !23
  %21 = getelementptr inbounds nuw %struct._ARKUserControlContent, ptr %20, i32 0, i32 4
  %22 = load ptr, ptr %21, align 8, !tbaa !24
  %23 = getelementptr inbounds nuw %struct.ARKodeMemRec, ptr %22, i32 0, i32 118
  %24 = load double, ptr %23, align 8, !tbaa !35
  %25 = load ptr, ptr %7, align 8, !tbaa !9
  %26 = getelementptr inbounds nuw %struct._generic_SUNAdaptController, ptr %25, i32 0, i32 0
  %27 = load ptr, ptr %26, align 8, !tbaa !23
  %28 = getelementptr inbounds nuw %struct._ARKUserControlContent, ptr %27, i32 0, i32 4
  %29 = load ptr, ptr %28, align 8, !tbaa !24
  %30 = getelementptr inbounds nuw %struct.ARKodeMemRec, ptr %29, i32 0, i32 92
  %31 = load double, ptr %30, align 8, !tbaa !43
  %32 = fadd double %24, %31
  br label %41

33:                                               ; preds = %5
  %34 = load ptr, ptr %7, align 8, !tbaa !9
  %35 = getelementptr inbounds nuw %struct._generic_SUNAdaptController, ptr %34, i32 0, i32 0
  %36 = load ptr, ptr %35, align 8, !tbaa !23
  %37 = getelementptr inbounds nuw %struct._ARKUserControlContent, ptr %36, i32 0, i32 4
  %38 = load ptr, ptr %37, align 8, !tbaa !24
  %39 = getelementptr inbounds nuw %struct.ARKodeMemRec, ptr %38, i32 0, i32 118
  %40 = load double, ptr %39, align 8, !tbaa !35
  br label %41

41:                                               ; preds = %33, %17
  %42 = phi double [ %32, %17 ], [ %40, %33 ]
  store double %42, ptr %12, align 8, !tbaa !30
  call void @llvm.lifetime.start.p0(i64 4, ptr %13) #5
  %43 = load ptr, ptr %7, align 8, !tbaa !9
  %44 = getelementptr inbounds nuw %struct._generic_SUNAdaptController, ptr %43, i32 0, i32 0
  %45 = load ptr, ptr %44, align 8, !tbaa !23
  %46 = getelementptr inbounds nuw %struct._ARKUserControlContent, ptr %45, i32 0, i32 5
  %47 = load ptr, ptr %46, align 8, !tbaa !28
  %48 = load ptr, ptr %7, align 8, !tbaa !9
  %49 = getelementptr inbounds nuw %struct._generic_SUNAdaptController, ptr %48, i32 0, i32 0
  %50 = load ptr, ptr %49, align 8, !tbaa !23
  %51 = getelementptr inbounds nuw %struct._ARKUserControlContent, ptr %50, i32 0, i32 4
  %52 = load ptr, ptr %51, align 8, !tbaa !24
  %53 = getelementptr inbounds nuw %struct.ARKodeMemRec, ptr %52, i32 0, i32 75
  %54 = load ptr, ptr %53, align 8, !tbaa !44
  %55 = load double, ptr %12, align 8, !tbaa !30
  %56 = load double, ptr %8, align 8, !tbaa !30
  %57 = load ptr, ptr %7, align 8, !tbaa !9
  %58 = getelementptr inbounds nuw %struct._generic_SUNAdaptController, ptr %57, i32 0, i32 0
  %59 = load ptr, ptr %58, align 8, !tbaa !23
  %60 = getelementptr inbounds nuw %struct._ARKUserControlContent, ptr %59, i32 0, i32 0
  %61 = load double, ptr %60, align 8, !tbaa !45
  %62 = load ptr, ptr %7, align 8, !tbaa !9
  %63 = getelementptr inbounds nuw %struct._generic_SUNAdaptController, ptr %62, i32 0, i32 0
  %64 = load ptr, ptr %63, align 8, !tbaa !23
  %65 = getelementptr inbounds nuw %struct._ARKUserControlContent, ptr %64, i32 0, i32 1
  %66 = load double, ptr %65, align 8, !tbaa !46
  %67 = load double, ptr %10, align 8, !tbaa !30
  %68 = load ptr, ptr %7, align 8, !tbaa !9
  %69 = getelementptr inbounds nuw %struct._generic_SUNAdaptController, ptr %68, i32 0, i32 0
  %70 = load ptr, ptr %69, align 8, !tbaa !23
  %71 = getelementptr inbounds nuw %struct._ARKUserControlContent, ptr %70, i32 0, i32 2
  %72 = load double, ptr %71, align 8, !tbaa !47
  %73 = load ptr, ptr %7, align 8, !tbaa !9
  %74 = getelementptr inbounds nuw %struct._generic_SUNAdaptController, ptr %73, i32 0, i32 0
  %75 = load ptr, ptr %74, align 8, !tbaa !23
  %76 = getelementptr inbounds nuw %struct._ARKUserControlContent, ptr %75, i32 0, i32 3
  %77 = load double, ptr %76, align 8, !tbaa !48
  %78 = load ptr, ptr %7, align 8, !tbaa !9
  %79 = getelementptr inbounds nuw %struct._generic_SUNAdaptController, ptr %78, i32 0, i32 0
  %80 = load ptr, ptr %79, align 8, !tbaa !23
  %81 = getelementptr inbounds nuw %struct._ARKUserControlContent, ptr %80, i32 0, i32 4
  %82 = load ptr, ptr %81, align 8, !tbaa !24
  %83 = getelementptr inbounds nuw %struct.ARKodeMemRec, ptr %82, i32 0, i32 101
  %84 = load ptr, ptr %83, align 8, !tbaa !49
  %85 = getelementptr inbounds nuw %struct.ARKodeHAdaptMemRec, ptr %84, i32 0, i32 12
  %86 = load i32, ptr %85, align 4, !tbaa !50
  %87 = load ptr, ptr %7, align 8, !tbaa !9
  %88 = getelementptr inbounds nuw %struct._generic_SUNAdaptController, ptr %87, i32 0, i32 0
  %89 = load ptr, ptr %88, align 8, !tbaa !23
  %90 = getelementptr inbounds nuw %struct._ARKUserControlContent, ptr %89, i32 0, i32 4
  %91 = load ptr, ptr %90, align 8, !tbaa !24
  %92 = getelementptr inbounds nuw %struct.ARKodeMemRec, ptr %91, i32 0, i32 101
  %93 = load ptr, ptr %92, align 8, !tbaa !49
  %94 = getelementptr inbounds nuw %struct.ARKodeHAdaptMemRec, ptr %93, i32 0, i32 11
  %95 = load i32, ptr %94, align 8, !tbaa !52
  %96 = load ptr, ptr %11, align 8, !tbaa !33
  %97 = load ptr, ptr %7, align 8, !tbaa !9
  %98 = getelementptr inbounds nuw %struct._generic_SUNAdaptController, ptr %97, i32 0, i32 0
  %99 = load ptr, ptr %98, align 8, !tbaa !23
  %100 = getelementptr inbounds nuw %struct._ARKUserControlContent, ptr %99, i32 0, i32 6
  %101 = load ptr, ptr %100, align 8, !tbaa !29
  %102 = call i32 %47(ptr noundef %54, double noundef %55, double noundef %56, double noundef %61, double noundef %66, double noundef %67, double noundef %72, double noundef %77, i32 noundef %86, i32 noundef %95, ptr noundef %96, ptr noundef %101)
  store i32 %102, ptr %13, align 4, !tbaa !31
  %103 = load i32, ptr %13, align 4, !tbaa !31
  %104 = icmp ne i32 %103, 0
  br i1 %104, label %105, label %106

105:                                              ; preds = %41
  store i32 -9984, ptr %6, align 4
  store i32 1, ptr %14, align 4
  br label %107

106:                                              ; preds = %41
  store i32 0, ptr %6, align 4
  store i32 1, ptr %14, align 4
  br label %107

107:                                              ; preds = %106, %105
  call void @llvm.lifetime.end.p0(i64 4, ptr %13) #5
  call void @llvm.lifetime.end.p0(i64 8, ptr %12) #5
  %108 = load i32, ptr %6, align 4
  ret i32 %108
}