; Function Attrs: nounwind uwtable
define range(i32 -9984, 1) i32 @SUNAdaptController_EstimateStep_ARKUserControl(ptr noundef readonly captures(none) %0, double noundef %1, i32 %2, double noundef %3, ptr noundef %4) #0 {
  %6 = fcmp ugt double %3, 1.000000e+00
  %7 = load ptr, ptr %0, align 8, !tbaa !17
  %8 = getelementptr inbounds nuw i8, ptr %7, i64 32
  %9 = load ptr, ptr %8, align 8, !tbaa !18
  %10 = getelementptr inbounds nuw i8, ptr %9, i64 896
  %11 = load double, ptr %10, align 8, !tbaa !26
  br i1 %6, label %16, label %12

12:                                               ; preds = %5
  %13 = getelementptr inbounds nuw i8, ptr %9, i64 704
  %14 = load double, ptr %13, align 8, !tbaa !35
  %15 = fadd double %11, %14
  br label %16

16:                                               ; preds = %5, %12
  %17 = phi double [ %15, %12 ], [ %11, %5 ]
  %18 = getelementptr inbounds nuw i8, ptr %7, i64 40
  %19 = load ptr, ptr %18, align 8, !tbaa !22
  %20 = getelementptr inbounds nuw i8, ptr %9, i64 584
  %21 = load ptr, ptr %20, align 8, !tbaa !36
  %22 = load double, ptr %7, align 8, !tbaa !37
  %23 = getelementptr inbounds nuw i8, ptr %7, i64 8
  %24 = load double, ptr %23, align 8, !tbaa !38
  %25 = getelementptr inbounds nuw i8, ptr %7, i64 16
  %26 = load double, ptr %25, align 8, !tbaa !24
  %27 = getelementptr inbounds nuw i8, ptr %7, i64 24
  %28 = load double, ptr %27, align 8, !tbaa !25
  %29 = getelementptr inbounds nuw i8, ptr %9, i64 776
  %30 = load ptr, ptr %29, align 8, !tbaa !39
  %31 = getelementptr inbounds nuw i8, ptr %30, i64 92
  %32 = load i32, ptr %31, align 4, !tbaa !40
  %33 = getelementptr inbounds nuw i8, ptr %30, i64 88
  %34 = load i32, ptr %33, align 8, !tbaa !43
  %35 = getelementptr inbounds nuw i8, ptr %7, i64 48
  %36 = load ptr, ptr %35, align 8, !tbaa !23
  %37 = tail call i32 %19(ptr noundef %21, double noundef %17, double noundef %1, double noundef %22, double noundef %24, double noundef %3, double noundef %26, double noundef %28, i32 noundef %32, i32 noundef %34, ptr noundef %4, ptr noundef %36) #11
  %.not = icmp eq i32 %37, 0
  %. = select i1 %.not, i32 0, i32 -9984
  ret i32 %.
}